target datalayout = "e-m:e-p270:32:32-p271:32:32-p272:64:64-i64:64-i128:128-f80:128-n8:16:32:64-S128"
target triple = "x86_64-pc-linux-gnu"

@je_opt_background_thread = hidden global i8 0, align 1
@pthread_create_fptr = internal global ptr null, align 8
@.str.6 = private unnamed_addr constant [15 x i8] c"pthread_create\00", align 1

; Function Attrs: nounwind uwtable
define internal zeroext i1 @pthread_create_fptr_init() #0 {
  %1 = alloca i1, align 1
  %2 = load ptr, ptr @pthread_create_fptr, align 8, !tbaa !11
  %3 = icmp ne ptr %2, null
  br i1 %3, label %4, label %5

4:                                                ; preds = %0
  store i1 false, ptr %1, align 1
  br label %11

5:                                                ; preds = %0
  %6 = call ptr @dlsym(ptr noundef inttoptr (i64 -1 to ptr), ptr noundef @.str.6) #12
  store ptr %6, ptr @pthread_create_fptr, align 8, !tbaa !11
  %7 = load ptr, ptr @pthread_create_fptr, align 8, !tbaa !11
  %8 = icmp eq ptr %7, null
  br i1 %8, label %9, label %10

9:                                                ; preds = %5
  store ptr @pthread_create, ptr @pthread_create_fptr, align 8, !tbaa !11
  br label %10

10:                                               ; preds = %9, %5
  store i1 false, ptr %1, align 1
  br label %11

11:                                               ; preds = %10, %4
  %12 = load i1, ptr %1, align 1
  ret i1 %12
}

; Function Attrs: nounwind uwtable
define hidden zeroext i1 @je_background_thread_boot0() #0 {
  %1 = alloca i1, align 1
  %2 = load i8, ptr @je_opt_background_thread, align 1, !tbaa !16, !range !18, !noundef !19
  %3 = trunc i8 %2 to i1
  br i1 %3, label %4, label %7

4:                                                ; preds = %0
  %5 = call zeroext i1 @pthread_create_fptr_init()
  br i1 %5, label %6, label %7

6:                                                ; preds = %4
  store i1 true, ptr %1, align 1
  br label %8

7:                                                ; preds = %4, %0
  store i1 false, ptr %1, align 1
  br label %8

8:                                                ; preds = %7, %6
  %9 = load i1, ptr %1, align 1
  ret i1 %9
}